target datalayout = "e-m:e-p270:32:32-p271:32:32-p272:64:64-i64:64-i128:128-f80:128-n8:16:32:64-S128"
target triple = "x86_64-pc-linux-gnu"

%struct.SimpleStruct = type { i8, i32, float, x86_fp80 }
%struct.PackedStruct = type <{ i8, i32, float, x86_fp80 }>
%struct.NestedStruct = type <{ %struct.SimpleStruct, %struct.PackedStruct }>

@.str = private unnamed_addr constant [3 x i8] c"s:\00", align 1
@.str.1 = private unnamed_addr constant [2 x i8] c",\00", align 1
@.str.2 = private unnamed_addr constant [3 x i8] c"p:\00", align 1
@.str.3 = private unnamed_addr constant [5 x i8] c"n:a=\00", align 1
@.str.4 = private unnamed_addr constant [4 x i8] c";b=\00", align 1

; Function Attrs: mustprogress uwtable
define hidden noundef nonnull align 8 dereferenceable(8) ptr @_ZlsRSoRK12PackedStruct(ptr noundef nonnull align 8 dereferenceable(8) %0, ptr noundef nonnull align 1 dereferenceable(25) %1) #1 {
  %3 = alloca ptr, align 8
  %4 = alloca ptr, align 8
  store ptr %0, ptr %3, align 8
  store ptr %1, ptr %4, align 8
  %5 = load ptr, ptr %3, align 8
  %6 = call noundef nonnull align 8 dereferenceable(8) ptr @_ZStlsISt11char_traitsIcEERSt13basic_ostreamIcT_ES5_PKc(ptr noundef nonnull align 8 dereferenceable(8) %5, ptr noundef @.str.2)
  %7 = load ptr, ptr %4, align 8
  %8 = getelementptr inbounds %struct.PackedStruct, ptr %7, i32 0, i32 0
  %9 = load i8, ptr %8, align 1
  %10 = trunc i8 %9 to i1
  %11 = call noundef nonnull align 8 dereferenceable(8) ptr @_ZNSolsEb(ptr noundef nonnull align 8 dereferenceable(8) %6, i1 noundef zeroext %10)
  %12 = call noundef nonnull align 8 dereferenceable(8) ptr @_ZStlsISt11char_traitsIcEERSt13basic_ostreamIcT_ES5_PKc(ptr noundef nonnull align 8 dereferenceable(8) %11, ptr noundef @.str.1)
  %13 = load ptr, ptr %4, align 8
  %14 = getelementptr inbounds %struct.PackedStruct, ptr %13, i32 0, i32 1
  %15 = load i32, ptr %14, align 1
  %16 = call noundef nonnull align 8 dereferenceable(8) ptr @_ZNSolsEj(ptr noundef nonnull align 8 dereferenceable(8) %12, i32 noundef %15)
  %17 = call noundef nonnull align 8 dereferenceable(8) ptr @_ZStlsISt11char_traitsIcEERSt13basic_ostreamIcT_ES5_PKc(ptr noundef nonnull align 8 dereferenceable(8) %16, ptr noundef @.str.1)
  %18 = load ptr, ptr %4, align 8
  %19 = getelementptr inbounds %struct.PackedStruct, ptr %18, i32 0, i32 2
  %20 = load float, ptr %19, align 1
  %21 = call noundef nonnull align 8 dereferenceable(8) ptr @_ZNSolsEf(ptr noundef nonnull align 8 dereferenceable(8) %17, float noundef %20)
  %22 = call noundef nonnull align 8 dereferenceable(8) ptr @_ZStlsISt11char_traitsIcEERSt13basic_ostreamIcT_ES5_PKc(ptr noundef nonnull align 8 dereferenceable(8) %21, ptr noundef @.str.1)
  %23 = load ptr, ptr %4, align 8
  %24 = getelementptr inbounds %struct.PackedStruct, ptr %23, i32 0, i32 3
  %25 = load x86_fp80, ptr %24, align 1
  %26 = call noundef nonnull align 8 dereferenceable(8) ptr @_ZNSolsEe(ptr noundef nonnull align 8 dereferenceable(8) %22, x86_fp80 noundef %25)
  ret ptr %26
}

; Function Attrs: mustprogress uwtable
define hidden noundef nonnull align 8 dereferenceable(8) ptr @_ZlsRSoRK12SimpleStruct(ptr noundef nonnull align 8 dereferenceable(8) %0, ptr noundef nonnull align 16 dereferenceable(32) %1) #1 {
  %3 = alloca ptr, align 8
  %4 = alloca ptr, align 8
  store ptr %0, ptr %3, align 8
  store ptr %1, ptr %4, align 8
  %5 = load ptr, ptr %3, align 8
  %6 = call noundef nonnull align 8 dereferenceable(8) ptr @_ZStlsISt11char_traitsIcEERSt13basic_ostreamIcT_ES5_PKc(ptr noundef nonnull align 8 dereferenceable(8) %5, ptr noundef @.str)
  %7 = load ptr, ptr %4, align 8
  %8 = getelementptr inbounds %struct.SimpleStruct, ptr %7, i32 0, i32 0
  %9 = load i8, ptr %8, align 16
  %10 = trunc i8 %9 to i1
  %11 = call noundef nonnull align 8 dereferenceable(8) ptr @_ZNSolsEb(ptr noundef nonnull align 8 dereferenceable(8) %6, i1 noundef zeroext %10)
  %12 = call noundef nonnull align 8 dereferenceable(8) ptr @_ZStlsISt11char_traitsIcEERSt13basic_ostreamIcT_ES5_PKc(ptr noundef nonnull align 8 dereferenceable(8) %11, ptr noundef @.str.1)
  %13 = load ptr, ptr %4, align 8
  %14 = getelementptr inbounds %struct.SimpleStruct, ptr %13, i32 0, i32 1
  %15 = load i32, ptr %14, align 4
  %16 = call noundef nonnull align 8 dereferenceable(8) ptr @_ZNSolsEj(ptr noundef nonnull align 8 dereferenceable(8) %12, i32 noundef %15)
  %17 = call noundef nonnull align 8 dereferenceable(8) ptr @_ZStlsISt11char_traitsIcEERSt13basic_ostreamIcT_ES5_PKc(ptr noundef nonnull align 8 dereferenceable(8) %16, ptr noundef @.str.1)
  %18 = load ptr, ptr %4, align 8
  %19 = getelementptr inbounds %struct.SimpleStruct, ptr %18, i32 0, i32 2
  %20 = load float, ptr %19, align 8
  %21 = call noundef nonnull align 8 dereferenceable(8) ptr @_ZNSolsEf(ptr noundef nonnull align 8 dereferenceable(8) %17, float noundef %20)
  %22 = call noundef nonnull align 8 dereferenceable(8) ptr @_ZStlsISt11char_traitsIcEERSt13basic_ostreamIcT_ES5_PKc(ptr noundef nonnull align 8 dereferenceable(8) %21, ptr noundef @.str.1)
  %23 = load ptr, ptr %4, align 8
  %24 = getelementptr inbounds %struct.SimpleStruct, ptr %23, i32 0, i32 3
  %25 = load x86_fp80, ptr %24, align 16
  %26 = call noundef nonnull align 8 dereferenceable(8) ptr @_ZNSolsEe(ptr noundef nonnull align 8 dereferenceable(8) %22, x86_fp80 noundef %25)
  ret ptr %26
}

; Function Attrs: mustprogress uwtable
define hidden noundef nonnull align 8 dereferenceable(8) ptr @_ZlsRSoRK12NestedStruct(ptr noundef nonnull align 8 dereferenceable(8) %0, ptr noundef nonnull align 1 dereferenceable(57) %1) #1 {
  %3 = alloca ptr, align 8
  %4 = alloca ptr, align 8
  store ptr %0, ptr %3, align 8
  store ptr %1, ptr %4, align 8
  %5 = load ptr, ptr %3, align 8
  %6 = call noundef nonnull align 8 dereferenceable(8) ptr @_ZStlsISt11char_traitsIcEERSt13basic_ostreamIcT_ES5_PKc(ptr noundef nonnull align 8 dereferenceable(8) %5, ptr noundef @.str.3)
  %7 = load ptr, ptr %4, align 8
  %8 = getelementptr inbounds %struct.NestedStruct, ptr %7, i32 0, i32 0
  %9 = call noundef nonnull align 8 dereferenceable(8) ptr @_ZlsRSoRK12SimpleStruct(ptr noundef nonnull align 8 dereferenceable(8) %6, ptr noundef nonnull align 16 dereferenceable(32) %8)
  %10 = call noundef nonnull align 8 dereferenceable(8) ptr @_ZStlsISt11char_traitsIcEERSt13basic_ostreamIcT_ES5_PKc(ptr noundef nonnull align 8 dereferenceable(8) %9, ptr noundef @.str.4)
  %11 = load ptr, ptr %4, align 8
  %12 = getelementptr inbounds %struct.NestedStruct, ptr %11, i32 0, i32 1
  %13 = call noundef nonnull align 8 dereferenceable(8) ptr @_ZlsRSoRK12PackedStruct(ptr noundef nonnull align 8 dereferenceable(8) %10, ptr noundef nonnull align 1 dereferenceable(25) %12)
  ret ptr %13
}